; Function Attrs: nounwind uwtable
define internal noundef i32 @FE_Clear_Field(ptr noundef captures(none) initializes((8, 16)) %0) #0 {
  %2 = getelementptr inbounds nuw i8, ptr %0, i64 12
  store i32 0, ptr %2, align 4, !tbaa !18
  %3 = getelementptr inbounds nuw i8, ptr %0, i64 8
  store i32 0, ptr %3, align 8, !tbaa !17
  %4 = getelementptr inbounds nuw i8, ptr %0, i64 56
  %5 = load ptr, ptr %4, align 8, !tbaa !4
  %6 = tail call i32 @werase(ptr noundef %5) #13
  ret i32 0
}